; Function Attrs: nounwind uwtable
define ptr @l_Std_SharedMutex_tryAtomically___rarg(ptr noundef %0, ptr noundef %1, ptr noundef %2, ptr noundef %3, ptr noundef %4) #0 {
  %6 = getelementptr inbounds nuw i8, ptr %0, i64 16
  %7 = load ptr, ptr %6, align 8, !tbaa !10
  %8 = ptrtoint ptr %7 to i64
  %9 = and i64 %8, 1
  %.not = icmp eq i64 %9, 0
  br i1 %.not, label %10, label %lean_inc.exit28

10:                                               ; preds = %5
  %.val.i = load i32, ptr %7, align 4, !tbaa !4
  %11 = icmp sgt i32 %.val.i, 0
  br i1 %11, label %12, label %14, !prof !9

12:                                               ; preds = %10
  %13 = add nuw i32 %.val.i, 1
  store i32 %13, ptr %7, align 4, !tbaa !4
  br label %lean_inc.exit28

14:                                               ; preds = %10
  %.not.i = icmp eq i32 %.val.i, 0
  br i1 %.not.i, label %lean_inc.exit28, label %15

15:                                               ; preds = %14
  tail call void @lean_inc_ref_cold(ptr noundef nonnull %7) #3
  br label %lean_inc.exit28

lean_inc.exit28:                                  ; preds = %15, %14, %12, %5
  %16 = getelementptr inbounds nuw i8, ptr %3, i64 16
  %17 = load ptr, ptr %16, align 8, !tbaa !10
  %18 = ptrtoint ptr %17 to i64
  %19 = and i64 %18, 1
  %.not44 = icmp eq i64 %19, 0
  br i1 %.not44, label %20, label %lean_inc.exit26

20:                                               ; preds = %lean_inc.exit28
  %.val.i29 = load i32, ptr %17, align 4, !tbaa !4
  %21 = icmp sgt i32 %.val.i29, 0
  br i1 %21, label %22, label %24, !prof !9

22:                                               ; preds = %20
  %23 = add nuw i32 %.val.i29, 1
  store i32 %23, ptr %17, align 4, !tbaa !4
  br label %26

24:                                               ; preds = %20
  %.not.i30 = icmp eq i32 %.val.i29, 0
  br i1 %.not.i30, label %lean_inc.exit26, label %25

25:                                               ; preds = %24
  tail call void @lean_inc_ref_cold(ptr noundef nonnull %17) #3
  %.val.i32.pr = load i32, ptr %17, align 4, !tbaa !4
  br label %26

26:                                               ; preds = %25, %22
  %.val.i32 = phi i32 [ %.val.i32.pr, %25 ], [ %23, %22 ]
  %27 = icmp sgt i32 %.val.i32, 0
  br i1 %27, label %28, label %30, !prof !14

28:                                               ; preds = %26
  %29 = add nuw i32 %.val.i32, 1
  store i32 %29, ptr %17, align 4, !tbaa !4
  br label %lean_inc.exit26

30:                                               ; preds = %26
  %.not.i33 = icmp eq i32 %.val.i32, 0
  br i1 %.not.i33, label %lean_inc.exit26, label %31

31:                                               ; preds = %30
  tail call void @lean_inc_ref_cold(ptr noundef nonnull %17) #3
  br label %lean_inc.exit26

lean_inc.exit26:                                  ; preds = %24, %31, %30, %28, %lean_inc.exit28
  tail call void @lean_inc_heartbeat() #3
  %32 = tail call noalias ptr @mi_malloc_small(i64 noundef 32) #3
  %33 = icmp eq ptr %32, null
  br i1 %33, label %34, label %lean_alloc_closure.exit

34:                                               ; preds = %lean_inc.exit26
  tail call void @lean_internal_panic_out_of_memory() #4
  unreachable

lean_alloc_closure.exit:                          ; preds = %lean_inc.exit26
  %35 = getelementptr inbounds nuw i8, ptr %32, i64 4
  store i32 1, ptr %32, align 4, !tbaa !4
  store i32 -184549344, ptr %35, align 4
  %36 = getelementptr inbounds nuw i8, ptr %32, i64 8
  store ptr @l_Std_BaseSharedMutex_tryWrite___boxed, ptr %36, align 8, !tbaa !10
  %37 = getelementptr inbounds nuw i8, ptr %32, i64 16
  store i16 2, ptr %37, align 8, !tbaa !12
  %38 = getelementptr inbounds nuw i8, ptr %32, i64 18
  store i16 1, ptr %38, align 2, !tbaa !12
  %39 = getelementptr inbounds nuw i8, ptr %32, i64 24
  store ptr %17, ptr %39, align 8, !tbaa !10
  %40 = ptrtoint ptr %1 to i64
  %41 = and i64 %40, 1
  %.not45 = icmp eq i64 %41, 0
  br i1 %.not45, label %42, label %lean_inc.exit

42:                                               ; preds = %lean_alloc_closure.exit
  %.val.i35 = load i32, ptr %1, align 4, !tbaa !4
  %43 = icmp sgt i32 %.val.i35, 0
  br i1 %43, label %44, label %46, !prof !9

44:                                               ; preds = %42
  %45 = add nuw i32 %.val.i35, 1
  store i32 %45, ptr %1, align 4, !tbaa !4
  br label %lean_inc.exit

46:                                               ; preds = %42
  %.not.i36 = icmp eq i32 %.val.i35, 0
  br i1 %.not.i36, label %lean_inc.exit, label %47

47:                                               ; preds = %46
  tail call void @lean_inc_ref_cold(ptr noundef nonnull %1) #3
  br label %lean_inc.exit

lean_inc.exit:                                    ; preds = %47, %46, %44, %lean_alloc_closure.exit
  %48 = tail call ptr @lean_apply_2(ptr noundef %1, ptr noundef nonnull inttoptr (i64 1 to ptr), ptr noundef nonnull %32) #3
  tail call void @lean_inc_heartbeat() #3
  %49 = tail call noalias ptr @mi_malloc_small(i64 noundef 72) #3
  %50 = icmp eq ptr %49, null
  br i1 %50, label %51, label %lean_alloc_closure.exit38

51:                                               ; preds = %lean_inc.exit
  tail call void @lean_internal_panic_out_of_memory() #4
  unreachable

lean_alloc_closure.exit38:                        ; preds = %lean_inc.exit
  %52 = getelementptr inbounds nuw i8, ptr %49, i64 4
  store i32 1, ptr %49, align 4, !tbaa !4
  store i32 -184549304, ptr %52, align 4
  %53 = getelementptr inbounds nuw i8, ptr %49, i64 8
  store ptr @l_Std_SharedMutex_tryAtomically___rarg___lambda__2___boxed, ptr %53, align 8, !tbaa !10
  %54 = getelementptr inbounds nuw i8, ptr %49, i64 16
  store i16 7, ptr %54, align 8, !tbaa !12
  %55 = getelementptr inbounds nuw i8, ptr %49, i64 18
  store i16 6, ptr %55, align 2, !tbaa !12
  %56 = getelementptr inbounds nuw i8, ptr %49, i64 24
  store ptr %0, ptr %56, align 8, !tbaa !10
  %57 = getelementptr inbounds nuw i8, ptr %49, i64 32
  store ptr %3, ptr %57, align 8, !tbaa !10
  %58 = getelementptr inbounds nuw i8, ptr %49, i64 40
  store ptr %4, ptr %58, align 8, !tbaa !10
  %59 = getelementptr inbounds nuw i8, ptr %49, i64 48
  store ptr %17, ptr %59, align 8, !tbaa !10
  %60 = getelementptr inbounds nuw i8, ptr %49, i64 56
  store ptr %1, ptr %60, align 8, !tbaa !10
  %61 = getelementptr inbounds nuw i8, ptr %49, i64 64
  store ptr %2, ptr %61, align 8, !tbaa !10
  %62 = tail call ptr @lean_apply_4(ptr noundef %7, ptr noundef nonnull inttoptr (i64 1 to ptr), ptr noundef nonnull inttoptr (i64 1 to ptr), ptr noundef %48, ptr noundef nonnull %49) #3
  ret ptr %62
}